; Function Attrs: mustprogress uwtable
define dso_local void @_ZNK5vcpkg14DiagnosticLine9to_stringERNSt7__cxx1112basic_stringIcSt11char_traitsIcESaIcEEE(ptr noundef nonnull align 8 dereferenceable(88) %0, ptr noundef nonnull align 8 dereferenceable(32) %1) local_unnamed_addr #0 align 2 personality ptr @__gxx_personality_v0 {
  %3 = alloca %"struct.vcpkg::LineInfo", align 8
  %4 = getelementptr inbounds nuw i8, ptr %0, i64 8
  %5 = getelementptr inbounds nuw i8, ptr %0, i64 48
  tail call fastcc void @_ZN12_GLOBAL__N_118append_file_prefixERNSt7__cxx1112basic_stringIcSt11char_traitsIcESaIcEEERKN5vcpkg8OptionalIS5_EERKNS7_10TextRowColE(ptr noundef nonnull align 8 dereferenceable(32) %1, ptr noundef nonnull align 8 dereferenceable(40) %4, ptr noundef nonnull align 4 dereferenceable(8) %5)
  %6 = load i32, ptr %0, align 8, !tbaa !30
  %7 = icmp ugt i32 %6, 4
  br i1 %7, label %8, label %10

8:                                                ; preds = %2
  call void @llvm.lifetime.start.p0(i64 16, ptr nonnull %3) #26
  store i32 48, ptr %3, align 8, !tbaa !49
  %9 = getelementptr inbounds nuw i8, ptr %3, i64 8
  store ptr @.str.2, ptr %9, align 8, !tbaa !51
  call void @_ZN5vcpkg6Checks11unreachableERKNS_8LineInfoE(ptr noundef nonnull align 8 dereferenceable(16) %3) #29
  unreachable

10:                                               ; preds = %2
  %11 = zext nneg i32 %6 to i64
  %12 = getelementptr inbounds nuw [5 x ptr], ptr @_ZZN12_GLOBAL__N_118append_kind_prefixERNSt7__cxx1112basic_stringIcSt11char_traitsIcESaIcEEEN5vcpkg8DiagKindEE8prefixes, i64 0, i64 %11
  %13 = load ptr, ptr %12, align 8, !tbaa !52
  %14 = getelementptr inbounds nuw i8, ptr %13, i64 8
  %15 = load i64, ptr %14, align 8, !tbaa !54
  %16 = getelementptr inbounds nuw i8, ptr %1, i64 8
  %17 = load i64, ptr %16, align 8, !tbaa !17
  %18 = sub i64 4611686018427387903, %17
  %19 = icmp ult i64 %18, %15
  br i1 %19, label %20, label %_ZN12_GLOBAL__N_118append_kind_prefixERNSt7__cxx1112basic_stringIcSt11char_traitsIcESaIcEEEN5vcpkg8DiagKindE.exit

20:                                               ; preds = %10
  tail call void @_ZSt20__throw_length_errorPKc(ptr noundef nonnull @.str.9) #29
  unreachable

_ZN12_GLOBAL__N_118append_kind_prefixERNSt7__cxx1112basic_stringIcSt11char_traitsIcESaIcEEEN5vcpkg8DiagKindE.exit: ; preds = %10
  %21 = load ptr, ptr %13, align 8, !tbaa !20
  %22 = tail call noundef nonnull align 8 dereferenceable(32) ptr @_ZNSt7__cxx1112basic_stringIcSt11char_traitsIcESaIcEE9_M_appendEPKcm(ptr noundef nonnull align 8 dereferenceable(32) %1, ptr noundef %21, i64 noundef %15)
  %23 = getelementptr inbounds nuw i8, ptr %0, i64 56
  %24 = tail call noundef nonnull align 8 dereferenceable(32) ptr @_ZNK5vcpkg15LocalizedString4dataB5cxx11Ev(ptr noundef nonnull align 8 dereferenceable(32) %23) #26
  %25 = getelementptr inbounds nuw i8, ptr %24, i64 8
  %26 = load i64, ptr %25, align 8, !tbaa !17
  %27 = load i64, ptr %16, align 8, !tbaa !17
  %28 = sub i64 4611686018427387903, %27
  %29 = icmp ult i64 %28, %26
  br i1 %29, label %30, label %_ZNSt7__cxx1112basic_stringIcSt11char_traitsIcESaIcEE6appendERKS4_.exit

30:                                               ; preds = %_ZN12_GLOBAL__N_118append_kind_prefixERNSt7__cxx1112basic_stringIcSt11char_traitsIcESaIcEEEN5vcpkg8DiagKindE.exit
  tail call void @_ZSt20__throw_length_errorPKc(ptr noundef nonnull @.str.9) #29
  unreachable

_ZNSt7__cxx1112basic_stringIcSt11char_traitsIcESaIcEE6appendERKS4_.exit: ; preds = %_ZN12_GLOBAL__N_118append_kind_prefixERNSt7__cxx1112basic_stringIcSt11char_traitsIcESaIcEEEN5vcpkg8DiagKindE.exit
  %31 = load ptr, ptr %24, align 8, !tbaa !12
  %32 = tail call noundef nonnull align 8 dereferenceable(32) ptr @_ZNSt7__cxx1112basic_stringIcSt11char_traitsIcESaIcEE9_M_appendEPKcm(ptr noundef nonnull align 8 dereferenceable(32) %1, ptr noundef %31, i64 noundef %26)
  ret void
}